target datalayout = "e-m:e-p270:32:32-p271:32:32-p272:64:64-i64:64-i128:128-f80:128-n8:16:32:64-S128"
target triple = "x86_64-pc-linux-gnu"

%"class.pxrInternal_v0_24__pxrReserved__::TraceEvent" = type { %"class.pxrInternal_v0_24__pxrReserved__::TraceKey", i32, i8, i8, i64, %"union.std::aligned_storage<8, 8>::type" }
%"class.pxrInternal_v0_24__pxrReserved__::TraceKey" = type { ptr }
%"union.std::aligned_storage<8, 8>::type" = type { [8 x i8] }

; Function Attrs: mustprogress nounwind uwtable
define noundef i64 @_ZNK32pxrInternal_v0_24__pxrReserved__10TraceEvent15GetEndTimeStampEv(ptr noundef nonnull align 8 dereferenceable(32) %0) #0 align 2 {
  %2 = alloca ptr, align 8
  store ptr %0, ptr %2, align 8
  %3 = load ptr, ptr %2, align 8
  %4 = getelementptr inbounds nuw %"class.pxrInternal_v0_24__pxrReserved__::TraceEvent", ptr %3, i32 0, i32 3
  %5 = load i8, ptr %4, align 1
  %6 = icmp ne i8 %5, 2
  br i1 %6, label %7, label %8

7:                                                ; preds = %1
  br label %11

8:                                                ; preds = %1
  %9 = getelementptr inbounds nuw %"class.pxrInternal_v0_24__pxrReserved__::TraceEvent", ptr %3, i32 0, i32 4
  %10 = load i64, ptr %9, align 8
  br label %11

11:                                               ; preds = %8, %7
  %12 = phi i64 [ 0, %7 ], [ %10, %8 ]
  ret i64 %12
}